target datalayout = "e-m:e-p270:32:32-p271:32:32-p272:64:64-i64:64-i128:128-f80:128-n8:16:32:64-S128"
target triple = "x86_64-pc-linux-gnu"

%struct.ArrayStruct = type { [3 x [4 x i8]], [2 x i32], %"struct.std::array.1", [4 x %"struct.std::array.2"] }
%"struct.std::array.1" = type { [3 x i8] }
%"struct.std::array.2" = type { [2 x float] }

@.str.9 = private unnamed_addr constant [4 x i8] c"a={\00", align 1
@.str.10 = private unnamed_addr constant [6 x i8] c"},b={\00", align 1
@.str.11 = private unnamed_addr constant [6 x i8] c"},c={\00", align 1
@.str.12 = private unnamed_addr constant [6 x i8] c"},d={\00", align 1

; Function Attrs: mustprogress nounwind uwtable
define linkonce_odr noundef nonnull align 4 dereferenceable(4) ptr @_ZNSt14__array_traitsIfLm2EE6_S_refERA2_Kfm(ptr noundef nonnull align 4 dereferenceable(8) %0, i64 noundef %1) #0 comdat align 2 {
  %3 = alloca ptr, align 8
  %4 = alloca i64, align 8
  store ptr %0, ptr %3, align 8
  store i64 %1, ptr %4, align 8
  %5 = load ptr, ptr %3, align 8
  %6 = load i64, ptr %4, align 8
  %7 = getelementptr inbounds [2 x float], ptr %5, i64 0, i64 %6
  ret ptr %7
}

; Function Attrs: mustprogress nounwind uwtable
define linkonce_odr noundef nonnull align 1 dereferenceable(1) ptr @_ZNSt14__array_traitsIhLm3EE6_S_refERA3_Khm(ptr noundef nonnull align 1 dereferenceable(3) %0, i64 noundef %1) #0 comdat align 2 {
  %3 = alloca ptr, align 8
  %4 = alloca i64, align 8
  store ptr %0, ptr %3, align 8
  store i64 %1, ptr %4, align 8
  %5 = load ptr, ptr %3, align 8
  %6 = load i64, ptr %4, align 8
  %7 = getelementptr inbounds [3 x i8], ptr %5, i64 0, i64 %6
  ret ptr %7
}

; Function Attrs: mustprogress nounwind uwtable
define linkonce_odr noundef nonnull align 4 dereferenceable(4) ptr @_ZNKSt5arrayIfLm2EEixEm(ptr noundef nonnull align 4 dereferenceable(8) %0, i64 noundef %1) #0 comdat align 2 {
  %3 = alloca ptr, align 8
  %4 = alloca i64, align 8
  store ptr %0, ptr %3, align 8
  store i64 %1, ptr %4, align 8
  %5 = load ptr, ptr %3, align 8
  %6 = getelementptr inbounds %"struct.std::array.2", ptr %5, i32 0, i32 0
  %7 = load i64, ptr %4, align 8
  %8 = call noundef nonnull align 4 dereferenceable(4) ptr @_ZNSt14__array_traitsIfLm2EE6_S_refERA2_Kfm(ptr noundef nonnull align 4 dereferenceable(8) %6, i64 noundef %7) #16
  ret ptr %8
}

; Function Attrs: mustprogress nounwind uwtable
define linkonce_odr noundef nonnull align 1 dereferenceable(1) ptr @_ZNKSt5arrayIhLm3EEixEm(ptr noundef nonnull align 1 dereferenceable(3) %0, i64 noundef %1) #0 comdat align 2 {
  %3 = alloca ptr, align 8
  %4 = alloca i64, align 8
  store ptr %0, ptr %3, align 8
  store i64 %1, ptr %4, align 8
  %5 = load ptr, ptr %3, align 8
  %6 = getelementptr inbounds %"struct.std::array.1", ptr %5, i32 0, i32 0
  %7 = load i64, ptr %4, align 8
  %8 = call noundef nonnull align 1 dereferenceable(1) ptr @_ZNSt14__array_traitsIhLm3EE6_S_refERA3_Khm(ptr noundef nonnull align 1 dereferenceable(3) %6, i64 noundef %7) #16
  ret ptr %8
}

; Function Attrs: mustprogress uwtable
define hidden noundef nonnull align 8 dereferenceable(8) ptr @_ZlsRSoRK11ArrayStruct(ptr noundef nonnull align 8 dereferenceable(8) %0, ptr noundef nonnull align 4 dereferenceable(56) %1) #1 {
  %3 = alloca ptr, align 8
  %4 = alloca ptr, align 8
  %5 = alloca i32, align 4
  %6 = alloca i32, align 4
  %7 = alloca i32, align 4
  store ptr %0, ptr %3, align 8
  store ptr %1, ptr %4, align 8
  %8 = load ptr, ptr %3, align 8
  %9 = call noundef nonnull align 8 dereferenceable(8) ptr @_ZStlsISt11char_traitsIcEERSt13basic_ostreamIcT_ES5_PKc(ptr noundef nonnull align 8 dereferenceable(8) %8, ptr noundef @.str.9)
  store i32 0, ptr %5, align 4
  br label %10

10:                                               ; preds = %52, %2
  %11 = load i32, ptr %5, align 4
  %12 = icmp slt i32 %11, 3
  br i1 %12, label %13, label %55

13:                                               ; preds = %10
  %14 = load i32, ptr %5, align 4
  %15 = icmp sgt i32 %14, 0
  br i1 %15, label %16, label %19

16:                                               ; preds = %13
  %17 = load ptr, ptr %3, align 8
  %18 = call noundef nonnull align 8 dereferenceable(8) ptr @_ZStlsISt11char_traitsIcEERSt13basic_ostreamIcT_ES5_c(ptr noundef nonnull align 8 dereferenceable(8) %17, i8 noundef signext 44)
  br label %19

19:                                               ; preds = %16, %13
  %20 = load ptr, ptr %3, align 8
  %21 = call noundef nonnull align 8 dereferenceable(8) ptr @_ZStlsISt11char_traitsIcEERSt13basic_ostreamIcT_ES5_c(ptr noundef nonnull align 8 dereferenceable(8) %20, i8 noundef signext 123)
  store i32 0, ptr %6, align 4
  br label %22

22:                                               ; preds = %38, %19
  %23 = load i32, ptr %6, align 4
  %24 = icmp slt i32 %23, 3
  br i1 %24, label %25, label %41

25:                                               ; preds = %22
  %26 = load ptr, ptr %3, align 8
  %27 = load ptr, ptr %4, align 8
  %28 = getelementptr inbounds %struct.ArrayStruct, ptr %27, i32 0, i32 0
  %29 = load i32, ptr %5, align 4
  %30 = sext i32 %29 to i64
  %31 = getelementptr inbounds [3 x [4 x i8]], ptr %28, i64 0, i64 %30
  %32 = load i32, ptr %6, align 4
  %33 = sext i32 %32 to i64
  %34 = getelementptr inbounds [4 x i8], ptr %31, i64 0, i64 %33
  %35 = load i8, ptr %34, align 1
  %36 = call noundef nonnull align 8 dereferenceable(8) ptr @_ZStlsISt11char_traitsIcEERSt13basic_ostreamIcT_ES5_c(ptr noundef nonnull align 8 dereferenceable(8) %26, i8 noundef signext %35)
  %37 = call noundef nonnull align 8 dereferenceable(8) ptr @_ZStlsISt11char_traitsIcEERSt13basic_ostreamIcT_ES5_c(ptr noundef nonnull align 8 dereferenceable(8) %36, i8 noundef signext 44)
  br label %38

38:                                               ; preds = %25
  %39 = load i32, ptr %6, align 4
  %40 = add nsw i32 %39, 1
  store i32 %40, ptr %6, align 4
  br label %22, !llvm.loop !7

41:                                               ; preds = %22
  %42 = load ptr, ptr %3, align 8
  %43 = load ptr, ptr %4, align 8
  %44 = getelementptr inbounds %struct.ArrayStruct, ptr %43, i32 0, i32 0
  %45 = load i32, ptr %5, align 4
  %46 = sext i32 %45 to i64
  %47 = getelementptr inbounds [3 x [4 x i8]], ptr %44, i64 0, i64 %46
  %48 = getelementptr inbounds [4 x i8], ptr %47, i64 0, i64 3
  %49 = load i8, ptr %48, align 1
  %50 = call noundef nonnull align 8 dereferenceable(8) ptr @_ZStlsISt11char_traitsIcEERSt13basic_ostreamIcT_ES5_c(ptr noundef nonnull align 8 dereferenceable(8) %42, i8 noundef signext %49)
  %51 = call noundef nonnull align 8 dereferenceable(8) ptr @_ZStlsISt11char_traitsIcEERSt13basic_ostreamIcT_ES5_c(ptr noundef nonnull align 8 dereferenceable(8) %50, i8 noundef signext 125)
  br label %52

52:                                               ; preds = %41
  %53 = load i32, ptr %5, align 4
  %54 = add nsw i32 %53, 1
  store i32 %54, ptr %5, align 4
  br label %10, !llvm.loop !8

55:                                               ; preds = %10
  %56 = load ptr, ptr %3, align 8
  %57 = call noundef nonnull align 8 dereferenceable(8) ptr @_ZStlsISt11char_traitsIcEERSt13basic_ostreamIcT_ES5_PKc(ptr noundef nonnull align 8 dereferenceable(8) %56, ptr noundef @.str.10)
  %58 = load ptr, ptr %4, align 8
  %59 = getelementptr inbounds %struct.ArrayStruct, ptr %58, i32 0, i32 1
  %60 = getelementptr inbounds [2 x i32], ptr %59, i64 0, i64 0
  %61 = load i32, ptr %60, align 4
  %62 = call noundef nonnull align 8 dereferenceable(8) ptr @_ZNSolsEi(ptr noundef nonnull align 8 dereferenceable(8) %57, i32 noundef %61)
  %63 = call noundef nonnull align 8 dereferenceable(8) ptr @_ZStlsISt11char_traitsIcEERSt13basic_ostreamIcT_ES5_c(ptr noundef nonnull align 8 dereferenceable(8) %62, i8 noundef signext 44)
  %64 = load ptr, ptr %4, align 8
  %65 = getelementptr inbounds %struct.ArrayStruct, ptr %64, i32 0, i32 1
  %66 = getelementptr inbounds [2 x i32], ptr %65, i64 0, i64 1
  %67 = load i32, ptr %66, align 4
  %68 = call noundef nonnull align 8 dereferenceable(8) ptr @_ZNSolsEi(ptr noundef nonnull align 8 dereferenceable(8) %63, i32 noundef %67)
  %69 = load ptr, ptr %3, align 8
  %70 = call noundef nonnull align 8 dereferenceable(8) ptr @_ZStlsISt11char_traitsIcEERSt13basic_ostreamIcT_ES5_PKc(ptr noundef nonnull align 8 dereferenceable(8) %69, ptr noundef @.str.11)
  %71 = load ptr, ptr %4, align 8
  %72 = getelementptr inbounds %struct.ArrayStruct, ptr %71, i32 0, i32 2
  %73 = call noundef nonnull align 1 dereferenceable(1) ptr @_ZNKSt5arrayIhLm3EEixEm(ptr noundef nonnull align 1 dereferenceable(3) %72, i64 noundef 0) #16
  %74 = load i8, ptr %73, align 1
  %75 = zext i8 %74 to i32
  %76 = call noundef nonnull align 8 dereferenceable(8) ptr @_ZNSolsEi(ptr noundef nonnull align 8 dereferenceable(8) %70, i32 noundef %75)
  %77 = call noundef nonnull align 8 dereferenceable(8) ptr @_ZStlsISt11char_traitsIcEERSt13basic_ostreamIcT_ES5_c(ptr noundef nonnull align 8 dereferenceable(8) %76, i8 noundef signext 44)
  %78 = load ptr, ptr %4, align 8
  %79 = getelementptr inbounds %struct.ArrayStruct, ptr %78, i32 0, i32 2
  %80 = call noundef nonnull align 1 dereferenceable(1) ptr @_ZNKSt5arrayIhLm3EEixEm(ptr noundef nonnull align 1 dereferenceable(3) %79, i64 noundef 1) #16
  %81 = load i8, ptr %80, align 1
  %82 = zext i8 %81 to i32
  %83 = call noundef nonnull align 8 dereferenceable(8) ptr @_ZNSolsEi(ptr noundef nonnull align 8 dereferenceable(8) %77, i32 noundef %82)
  %84 = call noundef nonnull align 8 dereferenceable(8) ptr @_ZStlsISt11char_traitsIcEERSt13basic_ostreamIcT_ES5_c(ptr noundef nonnull align 8 dereferenceable(8) %83, i8 noundef signext 44)
  %85 = load ptr, ptr %4, align 8
  %86 = getelementptr inbounds %struct.ArrayStruct, ptr %85, i32 0, i32 2
  %87 = call noundef nonnull align 1 dereferenceable(1) ptr @_ZNKSt5arrayIhLm3EEixEm(ptr noundef nonnull align 1 dereferenceable(3) %86, i64 noundef 2) #16
  %88 = load i8, ptr %87, align 1
  %89 = zext i8 %88 to i32
  %90 = call noundef nonnull align 8 dereferenceable(8) ptr @_ZNSolsEi(ptr noundef nonnull align 8 dereferenceable(8) %84, i32 noundef %89)
  %91 = load ptr, ptr %3, align 8
  %92 = call noundef nonnull align 8 dereferenceable(8) ptr @_ZStlsISt11char_traitsIcEERSt13basic_ostreamIcT_ES5_PKc(ptr noundef nonnull align 8 dereferenceable(8) %91, ptr noundef @.str.12)
  store i32 0, ptr %7, align 4
  br label %93

93:                                               ; preds = %123, %55
  %94 = load i32, ptr %7, align 4
  %95 = icmp slt i32 %94, 4
  br i1 %95, label %96, label %126

96:                                               ; preds = %93
  %97 = load i32, ptr %7, align 4
  %98 = icmp sgt i32 %97, 0
  br i1 %98, label %99, label %102

99:                                               ; preds = %96
  %100 = load ptr, ptr %3, align 8
  %101 = call noundef nonnull align 8 dereferenceable(8) ptr @_ZStlsISt11char_traitsIcEERSt13basic_ostreamIcT_ES5_c(ptr noundef nonnull align 8 dereferenceable(8) %100, i8 noundef signext 44)
  br label %102

102:                                              ; preds = %99, %96
  %103 = load ptr, ptr %3, align 8
  %104 = call noundef nonnull align 8 dereferenceable(8) ptr @_ZStlsISt11char_traitsIcEERSt13basic_ostreamIcT_ES5_c(ptr noundef nonnull align 8 dereferenceable(8) %103, i8 noundef signext 123)
  %105 = load ptr, ptr %4, align 8
  %106 = getelementptr inbounds %struct.ArrayStruct, ptr %105, i32 0, i32 3
  %107 = load i32, ptr %7, align 4
  %108 = sext i32 %107 to i64
  %109 = getelementptr inbounds [4 x %"struct.std::array.2"], ptr %106, i64 0, i64 %108
  %110 = call noundef nonnull align 4 dereferenceable(4) ptr @_ZNKSt5arrayIfLm2EEixEm(ptr noundef nonnull align 4 dereferenceable(8) %109, i64 noundef 0) #16
  %111 = load float, ptr %110, align 4
  %112 = call noundef nonnull align 8 dereferenceable(8) ptr @_ZNSolsEf(ptr noundef nonnull align 8 dereferenceable(8) %104, float noundef %111)
  %113 = call noundef nonnull align 8 dereferenceable(8) ptr @_ZStlsISt11char_traitsIcEERSt13basic_ostreamIcT_ES5_c(ptr noundef nonnull align 8 dereferenceable(8) %112, i8 noundef signext 44)
  %114 = load ptr, ptr %4, align 8
  %115 = getelementptr inbounds %struct.ArrayStruct, ptr %114, i32 0, i32 3
  %116 = load i32, ptr %7, align 4
  %117 = sext i32 %116 to i64
  %118 = getelementptr inbounds [4 x %"struct.std::array.2"], ptr %115, i64 0, i64 %117
  %119 = call noundef nonnull align 4 dereferenceable(4) ptr @_ZNKSt5arrayIfLm2EEixEm(ptr noundef nonnull align 4 dereferenceable(8) %118, i64 noundef 1) #16
  %120 = load float, ptr %119, align 4
  %121 = call noundef nonnull align 8 dereferenceable(8) ptr @_ZNSolsEf(ptr noundef nonnull align 8 dereferenceable(8) %113, float noundef %120)
  %122 = call noundef nonnull align 8 dereferenceable(8) ptr @_ZStlsISt11char_traitsIcEERSt13basic_ostreamIcT_ES5_c(ptr noundef nonnull align 8 dereferenceable(8) %121, i8 noundef signext 125)
  br label %123

123:                                              ; preds = %102
  %124 = load i32, ptr %7, align 4
  %125 = add nsw i32 %124, 1
  store i32 %125, ptr %7, align 4
  br label %93, !llvm.loop !9

126:                                              ; preds = %93
  %127 = load ptr, ptr %3, align 8
  %128 = call noundef nonnull align 8 dereferenceable(8) ptr @_ZStlsISt11char_traitsIcEERSt13basic_ostreamIcT_ES5_c(ptr noundef nonnull align 8 dereferenceable(8) %127, i8 noundef signext 125)
  ret ptr %128
}