; Function Attrs: mustprogress uwtable
define hidden noundef nonnull align 8 dereferenceable(8) ptr @_ZlsRSoRK11ArrayStruct(ptr noundef nonnull align 8 dereferenceable(8) %0, ptr nocapture noundef nonnull readonly align 4 dereferenceable(56) %1) local_unnamed_addr #1 {
  %3 = tail call noundef nonnull align 8 dereferenceable(8) ptr @_ZStlsISt11char_traitsIcEERSt13basic_ostreamIcT_ES5_PKc(ptr noundef nonnull align 8 dereferenceable(8) %0, ptr noundef nonnull @.str.9)
  br label %4

4:                                                ; preds = %2, %14
  %indvars.iv39 = phi i64 [ 0, %2 ], [ %indvars.iv.next40, %14 ]
  %.not34 = icmp eq i64 %indvars.iv39, 0
  br i1 %.not34, label %7, label %5

5:                                                ; preds = %4
  %6 = tail call noundef nonnull align 8 dereferenceable(8) ptr @_ZStlsISt11char_traitsIcEERSt13basic_ostreamIcT_ES5_c(ptr noundef nonnull align 8 dereferenceable(8) %0, i8 noundef signext 44)
  br label %7

7:                                                ; preds = %5, %4
  %8 = tail call noundef nonnull align 8 dereferenceable(8) ptr @_ZStlsISt11char_traitsIcEERSt13basic_ostreamIcT_ES5_c(ptr noundef nonnull align 8 dereferenceable(8) %0, i8 noundef signext 123)
  br label %9

9:                                                ; preds = %7, %9
  %indvars.iv = phi i64 [ 0, %7 ], [ %indvars.iv.next, %9 ]
  %10 = getelementptr inbounds [3 x [4 x i8]], ptr %1, i64 0, i64 %indvars.iv39, i64 %indvars.iv
  %11 = load i8, ptr %10, align 1
  %12 = tail call noundef nonnull align 8 dereferenceable(8) ptr @_ZStlsISt11char_traitsIcEERSt13basic_ostreamIcT_ES5_c(ptr noundef nonnull align 8 dereferenceable(8) %0, i8 noundef signext %11)
  %13 = tail call noundef nonnull align 8 dereferenceable(8) ptr @_ZStlsISt11char_traitsIcEERSt13basic_ostreamIcT_ES5_c(ptr noundef nonnull align 8 dereferenceable(8) %12, i8 noundef signext 44)
  %indvars.iv.next = add nuw nsw i64 %indvars.iv, 1
  %exitcond.not = icmp eq i64 %indvars.iv.next, 3
  br i1 %exitcond.not, label %14, label %9, !llvm.loop !7

14:                                               ; preds = %9
  %15 = getelementptr inbounds [3 x [4 x i8]], ptr %1, i64 0, i64 %indvars.iv39, i64 3
  %16 = load i8, ptr %15, align 1
  %17 = tail call noundef nonnull align 8 dereferenceable(8) ptr @_ZStlsISt11char_traitsIcEERSt13basic_ostreamIcT_ES5_c(ptr noundef nonnull align 8 dereferenceable(8) %0, i8 noundef signext %16)
  %18 = tail call noundef nonnull align 8 dereferenceable(8) ptr @_ZStlsISt11char_traitsIcEERSt13basic_ostreamIcT_ES5_c(ptr noundef nonnull align 8 dereferenceable(8) %17, i8 noundef signext 125)
  %indvars.iv.next40 = add nuw nsw i64 %indvars.iv39, 1
  %exitcond42.not = icmp eq i64 %indvars.iv.next40, 3
  br i1 %exitcond42.not, label %19, label %4, !llvm.loop !8

19:                                               ; preds = %14
  %20 = tail call noundef nonnull align 8 dereferenceable(8) ptr @_ZStlsISt11char_traitsIcEERSt13basic_ostreamIcT_ES5_PKc(ptr noundef nonnull align 8 dereferenceable(8) %0, ptr noundef nonnull @.str.10)
  %21 = getelementptr inbounds i8, ptr %1, i64 12
  %22 = load i32, ptr %21, align 4
  %23 = tail call noundef nonnull align 8 dereferenceable(8) ptr @_ZNSolsEi(ptr noundef nonnull align 8 dereferenceable(8) %20, i32 noundef %22)
  %24 = tail call noundef nonnull align 8 dereferenceable(8) ptr @_ZStlsISt11char_traitsIcEERSt13basic_ostreamIcT_ES5_c(ptr noundef nonnull align 8 dereferenceable(8) %23, i8 noundef signext 44)
  %25 = getelementptr inbounds i8, ptr %1, i64 16
  %26 = load i32, ptr %25, align 4
  %27 = tail call noundef nonnull align 8 dereferenceable(8) ptr @_ZNSolsEi(ptr noundef nonnull align 8 dereferenceable(8) %24, i32 noundef %26)
  %28 = tail call noundef nonnull align 8 dereferenceable(8) ptr @_ZStlsISt11char_traitsIcEERSt13basic_ostreamIcT_ES5_PKc(ptr noundef nonnull align 8 dereferenceable(8) %0, ptr noundef nonnull @.str.11)
  %29 = getelementptr inbounds i8, ptr %1, i64 20
  %30 = load i8, ptr %29, align 4
  %31 = zext i8 %30 to i32
  %32 = tail call noundef nonnull align 8 dereferenceable(8) ptr @_ZNSolsEi(ptr noundef nonnull align 8 dereferenceable(8) %28, i32 noundef %31)
  %33 = tail call noundef nonnull align 8 dereferenceable(8) ptr @_ZStlsISt11char_traitsIcEERSt13basic_ostreamIcT_ES5_c(ptr noundef nonnull align 8 dereferenceable(8) %32, i8 noundef signext 44)
  %34 = getelementptr inbounds i8, ptr %1, i64 21
  %35 = load i8, ptr %34, align 1
  %36 = zext i8 %35 to i32
  %37 = tail call noundef nonnull align 8 dereferenceable(8) ptr @_ZNSolsEi(ptr noundef nonnull align 8 dereferenceable(8) %33, i32 noundef %36)
  %38 = tail call noundef nonnull align 8 dereferenceable(8) ptr @_ZStlsISt11char_traitsIcEERSt13basic_ostreamIcT_ES5_c(ptr noundef nonnull align 8 dereferenceable(8) %37, i8 noundef signext 44)
  %39 = getelementptr inbounds i8, ptr %1, i64 22
  %40 = load i8, ptr %39, align 2
  %41 = zext i8 %40 to i32
  %42 = tail call noundef nonnull align 8 dereferenceable(8) ptr @_ZNSolsEi(ptr noundef nonnull align 8 dereferenceable(8) %38, i32 noundef %41)
  %43 = tail call noundef nonnull align 8 dereferenceable(8) ptr @_ZStlsISt11char_traitsIcEERSt13basic_ostreamIcT_ES5_PKc(ptr noundef nonnull align 8 dereferenceable(8) %0, ptr noundef nonnull @.str.12)
  %44 = getelementptr inbounds i8, ptr %1, i64 24
  br label %45

45:                                               ; preds = %19, %48
  %indvars.iv43 = phi i64 [ 0, %19 ], [ %indvars.iv.next44, %48 ]
  %.not = icmp eq i64 %indvars.iv43, 0
  br i1 %.not, label %48, label %46

46:                                               ; preds = %45
  %47 = tail call noundef nonnull align 8 dereferenceable(8) ptr @_ZStlsISt11char_traitsIcEERSt13basic_ostreamIcT_ES5_c(ptr noundef nonnull align 8 dereferenceable(8) %0, i8 noundef signext 44)
  br label %48

48:                                               ; preds = %46, %45
  %49 = tail call noundef nonnull align 8 dereferenceable(8) ptr @_ZStlsISt11char_traitsIcEERSt13basic_ostreamIcT_ES5_c(ptr noundef nonnull align 8 dereferenceable(8) %0, i8 noundef signext 123)
  %50 = getelementptr inbounds [4 x %"struct.std::array.2"], ptr %44, i64 0, i64 %indvars.iv43
  %51 = load float, ptr %50, align 4
  %52 = tail call noundef nonnull align 8 dereferenceable(8) ptr @_ZNSolsEf(ptr noundef nonnull align 8 dereferenceable(8) %49, float noundef %51)
  %53 = tail call noundef nonnull align 8 dereferenceable(8) ptr @_ZStlsISt11char_traitsIcEERSt13basic_ostreamIcT_ES5_c(ptr noundef nonnull align 8 dereferenceable(8) %52, i8 noundef signext 44)
  %54 = getelementptr inbounds i8, ptr %50, i64 4
  %55 = load float, ptr %54, align 4
  %56 = tail call noundef nonnull align 8 dereferenceable(8) ptr @_ZNSolsEf(ptr noundef nonnull align 8 dereferenceable(8) %53, float noundef %55)
  %57 = tail call noundef nonnull align 8 dereferenceable(8) ptr @_ZStlsISt11char_traitsIcEERSt13basic_ostreamIcT_ES5_c(ptr noundef nonnull align 8 dereferenceable(8) %56, i8 noundef signext 125)
  %indvars.iv.next44 = add nuw nsw i64 %indvars.iv43, 1
  %exitcond46.not = icmp eq i64 %indvars.iv.next44, 4
  br i1 %exitcond46.not, label %58, label %45, !llvm.loop !9

58:                                               ; preds = %48
  %59 = tail call noundef nonnull align 8 dereferenceable(8) ptr @_ZStlsISt11char_traitsIcEERSt13basic_ostreamIcT_ES5_c(ptr noundef nonnull align 8 dereferenceable(8) %0, i8 noundef signext 125)
  ret ptr %59
}